; Function Attrs: nounwind uwtable
define hidden noundef ptr @bn_wexpand(ptr noundef captures(ret: address, provenance) %0, i64 noundef %1) local_unnamed_addr #0 {
  %3 = getelementptr inbounds nuw i8, ptr %0, i64 12
  %4 = load i32, ptr %3, align 4, !tbaa !14
  %5 = sext i32 %4 to i64
  %.not = icmp ugt i64 %1, %5
  br i1 %.not, label %6, label %26

6:                                                ; preds = %2
  %7 = icmp ugt i64 %1, 8388607
  br i1 %7, label %8, label %9

8:                                                ; preds = %6
  tail call void @ERR_put_error(i32 noundef 3, i32 noundef 0, i32 noundef 102, ptr noundef nonnull @.str, i32 noundef 301) #14
  br label %26

9:                                                ; preds = %6
  %10 = getelementptr inbounds nuw i8, ptr %0, i64 20
  %11 = load i32, ptr %10, align 4, !tbaa !6
  %12 = and i32 %11, 2
  %.not18 = icmp eq i32 %12, 0
  br i1 %.not18, label %14, label %13

13:                                               ; preds = %9
  tail call void @ERR_put_error(i32 noundef 3, i32 noundef 0, i32 noundef 106, ptr noundef nonnull @.str, i32 noundef 306) #14
  br label %26

14:                                               ; preds = %9
  %15 = shl nuw nsw i64 %1, 3
  %16 = tail call noalias ptr @malloc(i64 noundef %15) #15
  %17 = icmp eq ptr %16, null
  br i1 %17, label %18, label %19

18:                                               ; preds = %14
  tail call void @ERR_put_error(i32 noundef 3, i32 noundef 0, i32 noundef 65, ptr noundef nonnull @.str, i32 noundef 312) #14
  br label %26

19:                                               ; preds = %14
  %20 = load ptr, ptr %0, align 8, !tbaa !13
  %21 = getelementptr inbounds nuw i8, ptr %0, i64 8
  %22 = load i32, ptr %21, align 8, !tbaa !15
  %23 = sext i32 %22 to i64
  %24 = shl nsw i64 %23, 3
  tail call void @llvm.memcpy.p0.p0.i64(ptr nonnull align 8 %16, ptr align 8 %20, i64 %24, i1 false)
  tail call void @free(ptr noundef %20) #14
  store ptr %16, ptr %0, align 8, !tbaa !13
  %25 = trunc nuw nsw i64 %1 to i32
  store i32 %25, ptr %3, align 4, !tbaa !14
  br label %26

26:                                               ; preds = %2, %19, %18, %13, %8
  %.0 = phi ptr [ null, %8 ], [ null, %13 ], [ null, %18 ], [ %0, %19 ], [ %0, %2 ]
  ret ptr %.0
}